; Function Attrs: mustprogress nofree norecurse nosync nounwind memory(readwrite, inaccessiblemem: none) uwtable
define void @_ZN10open_spiel9solitaire5Waste6RevealENS0_4CardE(ptr nocapture noundef nonnull readonly align 8 dereferenceable(48) %0, ptr nocapture noundef readonly byval(%"class.open_spiel::solitaire::Card") align 8 %1) unnamed_addr #15 align 2 {
  %3 = getelementptr inbounds nuw i8, ptr %0, i64 8
  %4 = load ptr, ptr %3, align 8
  %5 = getelementptr inbounds i8, ptr %0, i64 16
  %6 = load ptr, ptr %5, align 8
  %.not11 = icmp eq ptr %4, %6
  br i1 %.not11, label %.loopexit, label %.lr.ph

.lr.ph:                                           ; preds = %2, %16
  %.sroa.07.012 = phi ptr [ %17, %16 ], [ %4, %2 ]
  %7 = getelementptr inbounds nuw i8, ptr %.sroa.07.012, i64 12
  %8 = load i8, ptr %7, align 4
  %9 = trunc i8 %8 to i1
  br i1 %9, label %10, label %16

10:                                               ; preds = %.lr.ph
  %11 = getelementptr inbounds nuw i8, ptr %.sroa.07.012, i64 12
  %12 = load i32, ptr %1, align 8
  store i32 %12, ptr %.sroa.07.012, align 4
  %13 = getelementptr inbounds nuw i8, ptr %1, i64 4
  %14 = load i32, ptr %13, align 4
  %15 = getelementptr inbounds nuw i8, ptr %.sroa.07.012, i64 4
  store i32 %14, ptr %15, align 4
  store i8 0, ptr %11, align 4
  br label %.loopexit

16:                                               ; preds = %.lr.ph
  %17 = getelementptr inbounds i8, ptr %.sroa.07.012, i64 20
  %.not = icmp eq ptr %17, %6
  br i1 %.not, label %.loopexit, label %.lr.ph

.loopexit:                                        ; preds = %16, %2, %10
  ret void
}